target datalayout = "e-m:e-p270:32:32-p271:32:32-p272:64:64-i64:64-i128:128-f80:128-n8:16:32:64-S128"
target triple = "x86_64-pc-linux-gnu"

%struct.SwsColor = type { i32, i32, %struct.AVPrimaryCoefficients, %struct.AVRational, %struct.AVRational, %struct.AVRational, %struct.AVRational }
%struct.AVPrimaryCoefficients = type { %struct.AVCIExy, %struct.AVCIExy, %struct.AVCIExy }
%struct.AVCIExy = type { %struct.AVRational, %struct.AVRational }
%struct.AVRational = type { i32, i32 }
%struct.AVColorPrimariesDesc = type { %struct.AVCIExy, %struct.AVPrimaryCoefficients }

@.str = private unnamed_addr constant [30 x i8] c"Assertion %s failed at %s:%d\0A\00", align 1
@.str.2 = private unnamed_addr constant [20 x i8] c"libswscale/format.c\00", align 1
@.str.3 = private unnamed_addr constant [35 x i8] c"src->prim != AVCOL_PRI_UNSPECIFIED\00", align 1
@.str.4 = private unnamed_addr constant [35 x i8] c"dst->prim != AVCOL_PRI_UNSPECIFIED\00", align 1
@.str.5 = private unnamed_addr constant [34 x i8] c"src->trc != AVCOL_TRC_UNSPECIFIED\00", align 1
@.str.6 = private unnamed_addr constant [34 x i8] c"dst->trc != AVCOL_TRC_UNSPECIFIED\00", align 1

; Function Attrs: inlinehint nounwind uwtable
define internal i64 @av_make_q(i32 noundef %0, i32 noundef %1) #6 {
  %3 = alloca %struct.AVRational, align 4
  %4 = alloca i32, align 4
  %5 = alloca i32, align 4
  store i32 %0, ptr %4, align 4, !tbaa !4
  store i32 %1, ptr %5, align 4, !tbaa !4
  %6 = getelementptr inbounds nuw %struct.AVRational, ptr %3, i32 0, i32 0
  %7 = load i32, ptr %4, align 4, !tbaa !4
  store i32 %7, ptr %6, align 4, !tbaa !75
  %8 = getelementptr inbounds nuw %struct.AVRational, ptr %3, i32 0, i32 1
  %9 = load i32, ptr %5, align 4, !tbaa !4
  store i32 %9, ptr %8, align 4, !tbaa !83
  %10 = load i64, ptr %3, align 4
  ret i64 %10
}

; Function Attrs: nounwind uwtable
define internal i32 @infer_trc_ref(ptr noundef %0, ptr noundef %1) #0 {
  %3 = alloca i32, align 4
  %4 = alloca ptr, align 8
  %5 = alloca ptr, align 8
  %6 = alloca %struct.AVRational, align 4
  %7 = alloca %struct.AVRational, align 4
  store ptr %0, ptr %4, align 8, !tbaa !85
  store ptr %1, ptr %5, align 8, !tbaa !85
  %8 = load ptr, ptr %4, align 8, !tbaa !85
  %9 = getelementptr inbounds nuw %struct.SwsColor, ptr %8, i32 0, i32 1
  %10 = load i32, ptr %9, align 4, !tbaa !44
  %11 = icmp ne i32 %10, 2
  br i1 %11, label %12, label %13

12:                                               ; preds = %2
  store i32 0, ptr %3, align 4
  br label %41

13:                                               ; preds = %2
  %14 = load ptr, ptr %5, align 8, !tbaa !85
  %15 = getelementptr inbounds nuw %struct.SwsColor, ptr %14, i32 0, i32 1
  %16 = load i32, ptr %15, align 4, !tbaa !44
  switch i32 %16, label %26 [
    i32 2, label %17
    i32 16, label %17
    i32 18, label %17
  ]

17:                                               ; preds = %13, %13, %13
  %18 = load ptr, ptr %4, align 8, !tbaa !85
  %19 = getelementptr inbounds nuw %struct.SwsColor, ptr %18, i32 0, i32 1
  store i32 1, ptr %19, align 4, !tbaa !44
  %20 = load ptr, ptr %4, align 8, !tbaa !85
  %21 = getelementptr inbounds nuw %struct.SwsColor, ptr %20, i32 0, i32 3
  call void @llvm.lifetime.start.p0(i64 8, ptr %6) #8
  %22 = call i64 @av_make_q(i32 noundef 0, i32 noundef 1)
  store i64 %22, ptr %6, align 4
  call void @llvm.memcpy.p0.p0.i64(ptr align 4 %21, ptr align 4 %6, i64 8, i1 false), !tbaa.struct !54
  call void @llvm.lifetime.end.p0(i64 8, ptr %6) #8
  %23 = load ptr, ptr %4, align 8, !tbaa !85
  %24 = getelementptr inbounds nuw %struct.SwsColor, ptr %23, i32 0, i32 4
  call void @llvm.lifetime.start.p0(i64 8, ptr %7) #8
  %25 = call i64 @av_make_q(i32 noundef 203, i32 noundef 1)
  store i64 %25, ptr %7, align 4
  call void @llvm.memcpy.p0.p0.i64(ptr align 4 %24, ptr align 4 %7, i64 8, i1 false), !tbaa.struct !54
  call void @llvm.lifetime.end.p0(i64 8, ptr %7) #8
  br label %40

26:                                               ; preds = %13
  %27 = load ptr, ptr %5, align 8, !tbaa !85
  %28 = getelementptr inbounds nuw %struct.SwsColor, ptr %27, i32 0, i32 1
  %29 = load i32, ptr %28, align 4, !tbaa !44
  %30 = load ptr, ptr %4, align 8, !tbaa !85
  %31 = getelementptr inbounds nuw %struct.SwsColor, ptr %30, i32 0, i32 1
  store i32 %29, ptr %31, align 4, !tbaa !44
  %32 = load ptr, ptr %4, align 8, !tbaa !85
  %33 = getelementptr inbounds nuw %struct.SwsColor, ptr %32, i32 0, i32 3
  %34 = load ptr, ptr %5, align 8, !tbaa !85
  %35 = getelementptr inbounds nuw %struct.SwsColor, ptr %34, i32 0, i32 3
  call void @llvm.memcpy.p0.p0.i64(ptr align 4 %33, ptr align 4 %35, i64 8, i1 false), !tbaa.struct !54
  %36 = load ptr, ptr %4, align 8, !tbaa !85
  %37 = getelementptr inbounds nuw %struct.SwsColor, ptr %36, i32 0, i32 4
  %38 = load ptr, ptr %5, align 8, !tbaa !85
  %39 = getelementptr inbounds nuw %struct.SwsColor, ptr %38, i32 0, i32 4
  call void @llvm.memcpy.p0.p0.i64(ptr align 4 %37, ptr align 4 %39, i64 8, i1 false), !tbaa.struct !54
  br label %40

40:                                               ; preds = %26, %17
  store i32 1, ptr %3, align 4
  br label %41

41:                                               ; preds = %40, %12
  %42 = load i32, ptr %3, align 4
  ret i32 %42
}

; Function Attrs: nounwind uwtable
define internal i32 @infer_prim_ref(ptr noundef %0, ptr noundef %1) #0 {
  %3 = alloca i32, align 4
  %4 = alloca ptr, align 8
  %5 = alloca ptr, align 8
  store ptr %0, ptr %4, align 8, !tbaa !85
  store ptr %1, ptr %5, align 8, !tbaa !85
  %6 = load ptr, ptr %4, align 8, !tbaa !85
  %7 = getelementptr inbounds nuw %struct.SwsColor, ptr %6, i32 0, i32 0
  %8 = load i32, ptr %7, align 4, !tbaa !42
  %9 = icmp ne i32 %8, 2
  br i1 %9, label %10, label %11

10:                                               ; preds = %2
  store i32 0, ptr %3, align 4
  br label %36

11:                                               ; preds = %2
  %12 = load ptr, ptr %5, align 8, !tbaa !85
  %13 = getelementptr inbounds nuw %struct.SwsColor, ptr %12, i32 0, i32 0
  %14 = load i32, ptr %13, align 4, !tbaa !42
  switch i32 %14, label %25 [
    i32 1, label %15
    i32 4, label %15
    i32 5, label %15
    i32 6, label %15
    i32 7, label %15
  ]

15:                                               ; preds = %11, %11, %11, %11, %11
  %16 = load ptr, ptr %5, align 8, !tbaa !85
  %17 = getelementptr inbounds nuw %struct.SwsColor, ptr %16, i32 0, i32 0
  %18 = load i32, ptr %17, align 4, !tbaa !42
  %19 = load ptr, ptr %4, align 8, !tbaa !85
  %20 = getelementptr inbounds nuw %struct.SwsColor, ptr %19, i32 0, i32 0
  store i32 %18, ptr %20, align 4, !tbaa !42
  %21 = load ptr, ptr %4, align 8, !tbaa !85
  %22 = getelementptr inbounds nuw %struct.SwsColor, ptr %21, i32 0, i32 2
  %23 = load ptr, ptr %5, align 8, !tbaa !85
  %24 = getelementptr inbounds nuw %struct.SwsColor, ptr %23, i32 0, i32 2
  call void @llvm.memcpy.p0.p0.i64(ptr align 4 %22, ptr align 4 %24, i64 48, i1 false), !tbaa.struct !58
  br label %35

25:                                               ; preds = %11
  %26 = load ptr, ptr %4, align 8, !tbaa !85
  %27 = getelementptr inbounds nuw %struct.SwsColor, ptr %26, i32 0, i32 0
  store i32 1, ptr %27, align 4, !tbaa !42
  %28 = load ptr, ptr %4, align 8, !tbaa !85
  %29 = getelementptr inbounds nuw %struct.SwsColor, ptr %28, i32 0, i32 2
  %30 = load ptr, ptr %4, align 8, !tbaa !85
  %31 = getelementptr inbounds nuw %struct.SwsColor, ptr %30, i32 0, i32 0
  %32 = load i32, ptr %31, align 4, !tbaa !42
  %33 = call ptr @av_csp_primaries_desc_from_id(i32 noundef %32)
  %34 = getelementptr inbounds nuw %struct.AVColorPrimariesDesc, ptr %33, i32 0, i32 1
  call void @llvm.memcpy.p0.p0.i64(ptr align 4 %29, ptr align 4 %34, i64 48, i1 false), !tbaa.struct !58
  br label %35

35:                                               ; preds = %25, %15
  store i32 1, ptr %3, align 4
  br label %36

36:                                               ; preds = %35, %10
  %37 = load i32, ptr %3, align 4
  ret i32 %37
}

; Function Attrs: nounwind uwtable
define zeroext i1 @ff_infer_colors(ptr noundef %0, ptr noundef %1) #0 {
  %3 = alloca ptr, align 8
  %4 = alloca ptr, align 8
  %5 = alloca i32, align 4
  store ptr %0, ptr %3, align 8, !tbaa !85
  store ptr %1, ptr %4, align 8, !tbaa !85
  call void @llvm.lifetime.start.p0(i64 4, ptr %5) #8
  store i32 0, ptr %5, align 4, !tbaa !4
  %6 = load ptr, ptr %4, align 8, !tbaa !85
  %7 = load ptr, ptr %3, align 8, !tbaa !85
  %8 = call i32 @infer_prim_ref(ptr noundef %6, ptr noundef %7)
  %9 = load i32, ptr %5, align 4, !tbaa !4
  %10 = or i32 %9, %8
  store i32 %10, ptr %5, align 4, !tbaa !4
  %11 = load ptr, ptr %3, align 8, !tbaa !85
  %12 = load ptr, ptr %4, align 8, !tbaa !85
  %13 = call i32 @infer_prim_ref(ptr noundef %11, ptr noundef %12)
  %14 = load i32, ptr %5, align 4, !tbaa !4
  %15 = or i32 %14, %13
  store i32 %15, ptr %5, align 4, !tbaa !4
  br label %16

16:                                               ; preds = %2
  %17 = load ptr, ptr %3, align 8, !tbaa !85
  %18 = getelementptr inbounds nuw %struct.SwsColor, ptr %17, i32 0, i32 0
  %19 = load i32, ptr %18, align 4, !tbaa !42
  %20 = icmp ne i32 %19, 2
  br i1 %20, label %22, label %21

21:                                               ; preds = %16
  call void (ptr, i32, ptr, ...) @av_log(ptr noundef null, i32 noundef 0, ptr noundef @.str, ptr noundef @.str.3, ptr noundef @.str.2, i32 noundef 492)
  call void @abort() #9
  unreachable

22:                                               ; preds = %16
  br label %23

23:                                               ; preds = %22
  br label %24

24:                                               ; preds = %23
  br label %25

25:                                               ; preds = %24
  %26 = load ptr, ptr %4, align 8, !tbaa !85
  %27 = getelementptr inbounds nuw %struct.SwsColor, ptr %26, i32 0, i32 0
  %28 = load i32, ptr %27, align 4, !tbaa !42
  %29 = icmp ne i32 %28, 2
  br i1 %29, label %31, label %30

30:                                               ; preds = %25
  call void (ptr, i32, ptr, ...) @av_log(ptr noundef null, i32 noundef 0, ptr noundef @.str, ptr noundef @.str.4, ptr noundef @.str.2, i32 noundef 493)
  call void @abort() #9
  unreachable

31:                                               ; preds = %25
  br label %32

32:                                               ; preds = %31
  br label %33

33:                                               ; preds = %32
  %34 = load ptr, ptr %4, align 8, !tbaa !85
  %35 = load ptr, ptr %3, align 8, !tbaa !85
  %36 = call i32 @infer_trc_ref(ptr noundef %34, ptr noundef %35)
  %37 = load i32, ptr %5, align 4, !tbaa !4
  %38 = or i32 %37, %36
  store i32 %38, ptr %5, align 4, !tbaa !4
  %39 = load ptr, ptr %3, align 8, !tbaa !85
  %40 = load ptr, ptr %4, align 8, !tbaa !85
  %41 = call i32 @infer_trc_ref(ptr noundef %39, ptr noundef %40)
  %42 = load i32, ptr %5, align 4, !tbaa !4
  %43 = or i32 %42, %41
  store i32 %43, ptr %5, align 4, !tbaa !4
  br label %44

44:                                               ; preds = %33
  %45 = load ptr, ptr %3, align 8, !tbaa !85
  %46 = getelementptr inbounds nuw %struct.SwsColor, ptr %45, i32 0, i32 1
  %47 = load i32, ptr %46, align 4, !tbaa !44
  %48 = icmp ne i32 %47, 2
  br i1 %48, label %50, label %49

49:                                               ; preds = %44
  call void (ptr, i32, ptr, ...) @av_log(ptr noundef null, i32 noundef 0, ptr noundef @.str, ptr noundef @.str.5, ptr noundef @.str.2, i32 noundef 497)
  call void @abort() #9
  unreachable

50:                                               ; preds = %44
  br label %51

51:                                               ; preds = %50
  br label %52

52:                                               ; preds = %51
  br label %53

53:                                               ; preds = %52
  %54 = load ptr, ptr %4, align 8, !tbaa !85
  %55 = getelementptr inbounds nuw %struct.SwsColor, ptr %54, i32 0, i32 1
  %56 = load i32, ptr %55, align 4, !tbaa !44
  %57 = icmp ne i32 %56, 2
  br i1 %57, label %59, label %58

58:                                               ; preds = %53
  call void (ptr, i32, ptr, ...) @av_log(ptr noundef null, i32 noundef 0, ptr noundef @.str, ptr noundef @.str.6, ptr noundef @.str.2, i32 noundef 498)
  call void @abort() #9
  unreachable

59:                                               ; preds = %53
  br label %60

60:                                               ; preds = %59
  br label %61

61:                                               ; preds = %60
  %62 = load i32, ptr %5, align 4, !tbaa !4
  %63 = icmp ne i32 %62, 0
  call void @llvm.lifetime.end.p0(i64 4, ptr %5) #8
  ret i1 %63
}